target datalayout = "e-m:e-p270:32:32-p271:32:32-p272:64:64-i64:64-i128:128-f80:128-n8:16:32:64-S128"
target triple = "x86_64-pc-linux-gnu"

%"class.OpenSubdiv::v3_6_0::Bfr::SurfaceFactory" = type { %"class.OpenSubdiv::v3_6_0::Bfr::SurfaceFactoryMeshAdapter", i32, %"class.OpenSubdiv::v3_6_0::Sdc::Options", %"class.OpenSubdiv::v3_6_0::Bfr::SurfaceFactory::Options", i8, i32, ptr }
%"class.OpenSubdiv::v3_6_0::Bfr::SurfaceFactoryMeshAdapter" = type { ptr }
%"class.OpenSubdiv::v3_6_0::Sdc::Options" = type { i8, i8, i8, i8 }
%"class.OpenSubdiv::v3_6_0::Bfr::SurfaceFactory::Options" = type <{ i64, ptr, i8, i8, i8, [5 x i8] }>
%"class.OpenSubdiv::v3_6_0::Bfr::Parameterization" = type { i8, i8, i16 }
%"class.OpenSubdiv::v3_6_0::Bfr::internal::SurfaceData" = type { %"class.OpenSubdiv::v3_6_0::Vtr::internal::StackBuffer.4", %"class.OpenSubdiv::v3_6_0::Bfr::Parameterization", i8, i8, i8, %"class.std::shared_ptr" }
%"class.OpenSubdiv::v3_6_0::Vtr::internal::StackBuffer.4" = type { ptr, i32, i32, [80 x i8], ptr }
%"class.std::shared_ptr" = type { %"class.std::__shared_ptr" }
%"class.std::__shared_ptr" = type { ptr, %"class.std::__shared_count" }
%"class.std::__shared_count" = type { ptr }

; Function Attrs: mustprogress uwtable
define linkonce_odr void @_ZN10OpenSubdiv6v3_6_03Vtr8internal11StackBufferIiLj20ELb1EE8allocateEj(ptr noundef nonnull align 8 dereferenceable(104) %0, i32 noundef %1) #1 comdat align 2 {
  %3 = alloca ptr, align 8
  %4 = alloca i32, align 4
  store ptr %0, ptr %3, align 8
  store i32 %1, ptr %4, align 4
  %5 = load ptr, ptr %3, align 8
  %6 = load i32, ptr %4, align 4
  %7 = zext i32 %6 to i64
  %8 = mul i64 %7, 4
  %9 = call noalias noundef nonnull ptr @_Znwm(i64 noundef %8) #11
  %10 = getelementptr inbounds nuw %"class.OpenSubdiv::v3_6_0::Vtr::internal::StackBuffer.4", ptr %5, i32 0, i32 4
  store ptr %9, ptr %10, align 8
  %11 = getelementptr inbounds nuw %"class.OpenSubdiv::v3_6_0::Vtr::internal::StackBuffer.4", ptr %5, i32 0, i32 4
  %12 = load ptr, ptr %11, align 8
  %13 = getelementptr inbounds nuw %"class.OpenSubdiv::v3_6_0::Vtr::internal::StackBuffer.4", ptr %5, i32 0, i32 0
  store ptr %12, ptr %13, align 8
  %14 = load i32, ptr %4, align 4
  %15 = getelementptr inbounds nuw %"class.OpenSubdiv::v3_6_0::Vtr::internal::StackBuffer.4", ptr %5, i32 0, i32 2
  store i32 %14, ptr %15, align 4
  ret void
}

; Function Attrs: mustprogress nounwind uwtable
define linkonce_odr void @_ZN10OpenSubdiv6v3_6_03Vtr8internal11StackBufferIiLj20ELb1EE10deallocateEv(ptr noundef nonnull align 8 dereferenceable(104) %0) #0 comdat align 2 {
  %2 = alloca ptr, align 8
  store ptr %0, ptr %2, align 8
  %3 = load ptr, ptr %2, align 8
  %4 = getelementptr inbounds nuw %"class.OpenSubdiv::v3_6_0::Vtr::internal::StackBuffer.4", ptr %3, i32 0, i32 4
  %5 = load ptr, ptr %4, align 8
  call void @_ZdlPv(ptr noundef %5) #10
  %6 = getelementptr inbounds nuw %"class.OpenSubdiv::v3_6_0::Vtr::internal::StackBuffer.4", ptr %3, i32 0, i32 3
  %7 = getelementptr inbounds [80 x i8], ptr %6, i64 0, i64 0
  %8 = getelementptr inbounds nuw %"class.OpenSubdiv::v3_6_0::Vtr::internal::StackBuffer.4", ptr %3, i32 0, i32 0
  store ptr %7, ptr %8, align 8
  %9 = getelementptr inbounds nuw %"class.OpenSubdiv::v3_6_0::Vtr::internal::StackBuffer.4", ptr %3, i32 0, i32 2
  store i32 20, ptr %9, align 4
  ret void
}

; Function Attrs: mustprogress nounwind uwtable
define linkonce_odr noundef ptr @_ZN10OpenSubdiv6v3_6_03Vtr8internal11StackBufferIiLj20ELb1EEcvPiEv(ptr noundef nonnull align 8 dereferenceable(104) %0) #0 comdat align 2 {
  %2 = alloca ptr, align 8
  store ptr %0, ptr %2, align 8
  %3 = load ptr, ptr %2, align 8
  %4 = getelementptr inbounds nuw %"class.OpenSubdiv::v3_6_0::Vtr::internal::StackBuffer.4", ptr %3, i32 0, i32 0
  %5 = load ptr, ptr %4, align 8
  ret ptr %5
}

; Function Attrs: mustprogress uwtable
define linkonce_odr void @_ZN10OpenSubdiv6v3_6_03Vtr8internal11StackBufferIiLj20ELb1EE7SetSizeEj(ptr noundef nonnull align 8 dereferenceable(104) %0, i32 noundef %1) #1 comdat align 2 {
  %3 = alloca ptr, align 8
  %4 = alloca i32, align 4
  store ptr %0, ptr %3, align 8
  store i32 %1, ptr %4, align 4
  %5 = load ptr, ptr %3, align 8
  %6 = load i32, ptr %4, align 4
  %7 = icmp eq i32 %6, 0
  br i1 %7, label %8, label %9

8:                                                ; preds = %2
  call void @_ZN10OpenSubdiv6v3_6_03Vtr8internal11StackBufferIiLj20ELb1EE10deallocateEv(ptr noundef nonnull align 8 dereferenceable(104) %5)
  br label %17

9:                                                ; preds = %2
  %10 = load i32, ptr %4, align 4
  %11 = getelementptr inbounds nuw %"class.OpenSubdiv::v3_6_0::Vtr::internal::StackBuffer.4", ptr %5, i32 0, i32 2
  %12 = load i32, ptr %11, align 4
  %13 = icmp ugt i32 %10, %12
  br i1 %13, label %14, label %16

14:                                               ; preds = %9
  call void @_ZN10OpenSubdiv6v3_6_03Vtr8internal11StackBufferIiLj20ELb1EE10deallocateEv(ptr noundef nonnull align 8 dereferenceable(104) %5)
  %15 = load i32, ptr %4, align 4
  call void @_ZN10OpenSubdiv6v3_6_03Vtr8internal11StackBufferIiLj20ELb1EE8allocateEj(ptr noundef nonnull align 8 dereferenceable(104) %5, i32 noundef %15)
  br label %16

16:                                               ; preds = %14, %9
  br label %17

17:                                               ; preds = %16, %8
  %18 = load i32, ptr %4, align 4
  %19 = getelementptr inbounds nuw %"class.OpenSubdiv::v3_6_0::Vtr::internal::StackBuffer.4", ptr %5, i32 0, i32 1
  store i32 %18, ptr %19, align 8
  ret void
}

; Function Attrs: mustprogress nounwind uwtable
define linkonce_odr void @_ZN10OpenSubdiv6v3_6_03Bfr8internal11SurfaceData8setValidEb(ptr noundef nonnull align 8 dereferenceable(128) %0, i1 noundef zeroext %1) #0 comdat align 2 {
  %3 = alloca ptr, align 8
  %4 = alloca i8, align 1
  store ptr %0, ptr %3, align 8
  %5 = zext i1 %1 to i8
  store i8 %5, ptr %4, align 1
  %6 = load ptr, ptr %3, align 8
  %7 = load i8, ptr %4, align 1
  %8 = trunc i8 %7 to i1
  %9 = zext i1 %8 to i8
  %10 = getelementptr inbounds nuw %"class.OpenSubdiv::v3_6_0::Bfr::internal::SurfaceData", ptr %6, i32 0, i32 2
  %11 = load i8, ptr %10, align 4
  %12 = and i8 %9, 1
  %13 = and i8 %11, -2
  %14 = or i8 %13, %12
  store i8 %14, ptr %10, align 4
  ret void
}

; Function Attrs: mustprogress nounwind uwtable
define linkonce_odr noundef zeroext i8 @_ZNK10OpenSubdiv6v3_6_03Bfr8internal11SurfaceData15getRegPatchMaskEv(ptr noundef nonnull align 8 dereferenceable(128) %0) #0 comdat align 2 {
  %2 = alloca ptr, align 8
  store ptr %0, ptr %2, align 8
  %3 = load ptr, ptr %2, align 8
  %4 = getelementptr inbounds nuw %"class.OpenSubdiv::v3_6_0::Bfr::internal::SurfaceData", ptr %3, i32 0, i32 4
  %5 = load i8, ptr %4, align 2
  ret i8 %5
}

; Function Attrs: mustprogress uwtable
define linkonce_odr noundef ptr @_ZN10OpenSubdiv6v3_6_03Bfr8internal11SurfaceData9resizeCVsEi(ptr noundef nonnull align 8 dereferenceable(128) %0, i32 noundef %1) #1 comdat align 2 {
  %3 = alloca ptr, align 8
  %4 = alloca i32, align 4
  store ptr %0, ptr %3, align 8
  store i32 %1, ptr %4, align 4
  %5 = load ptr, ptr %3, align 8
  %6 = getelementptr inbounds nuw %"class.OpenSubdiv::v3_6_0::Bfr::internal::SurfaceData", ptr %5, i32 0, i32 0
  %7 = load i32, ptr %4, align 4
  call void @_ZN10OpenSubdiv6v3_6_03Vtr8internal11StackBufferIiLj20ELb1EE7SetSizeEj(ptr noundef nonnull align 8 dereferenceable(104) %6, i32 noundef %7)
  %8 = getelementptr inbounds nuw %"class.OpenSubdiv::v3_6_0::Bfr::internal::SurfaceData", ptr %5, i32 0, i32 0
  %9 = call noundef ptr @_ZN10OpenSubdiv6v3_6_03Vtr8internal11StackBufferIiLj20ELb1EEcvPiEv(ptr noundef nonnull align 8 dereferenceable(104) %8)
  %10 = getelementptr inbounds i32, ptr %9, i64 0
  ret ptr %10
}

; Function Attrs: mustprogress nounwind uwtable
define linkonce_odr noundef i32 @_ZN10OpenSubdiv6v3_6_03Bfr19RegularPatchBuilder12GetPatchSizeEi(i32 noundef %0) #0 comdat align 2 {
  %2 = alloca i32, align 4
  store i32 %0, ptr %2, align 4
  %3 = load i32, ptr %2, align 4
  %4 = icmp eq i32 %3, 4
  %5 = select i1 %4, i32 16, i32 12
  ret i32 %5
}

; Function Attrs: mustprogress nounwind uwtable
define linkonce_odr void @_ZN10OpenSubdiv6v3_6_03Bfr8internal11SurfaceData15setRegPatchMaskEi(ptr noundef nonnull align 8 dereferenceable(128) %0, i32 noundef %1) #0 comdat align 2 {
  %3 = alloca ptr, align 8
  %4 = alloca i32, align 4
  store ptr %0, ptr %3, align 8
  store i32 %1, ptr %4, align 4
  %5 = load ptr, ptr %3, align 8
  %6 = load i32, ptr %4, align 4
  %7 = trunc i32 %6 to i8
  %8 = getelementptr inbounds nuw %"class.OpenSubdiv::v3_6_0::Bfr::internal::SurfaceData", ptr %5, i32 0, i32 4
  store i8 %7, ptr %8, align 2
  ret void
}

; Function Attrs: mustprogress nounwind uwtable
define linkonce_odr void @_ZN10OpenSubdiv6v3_6_03Bfr8internal11SurfaceData15setRegPatchTypeEi(ptr noundef nonnull align 8 dereferenceable(128) %0, i32 noundef %1) #0 comdat align 2 {
  %3 = alloca ptr, align 8
  %4 = alloca i32, align 4
  store ptr %0, ptr %3, align 8
  store i32 %1, ptr %4, align 4
  %5 = load ptr, ptr %3, align 8
  %6 = load i32, ptr %4, align 4
  %7 = trunc i32 %6 to i8
  %8 = getelementptr inbounds nuw %"class.OpenSubdiv::v3_6_0::Bfr::internal::SurfaceData", ptr %5, i32 0, i32 3
  store i8 %7, ptr %8, align 1
  ret void
}

; Function Attrs: mustprogress nounwind uwtable
define linkonce_odr noundef i32 @_ZN10OpenSubdiv6v3_6_03Bfr19RegularPatchBuilder12GetPatchTypeEi(i32 noundef %0) #0 comdat align 2 {
  %2 = alloca i32, align 4
  store i32 %0, ptr %2, align 4
  %3 = load i32, ptr %2, align 4
  %4 = icmp eq i32 %3, 4
  %5 = select i1 %4, i32 6, i32 5
  ret i32 %5
}

; Function Attrs: mustprogress nounwind uwtable
define linkonce_odr void @_ZN10OpenSubdiv6v3_6_03Bfr8internal11SurfaceData9setLinearEb(ptr noundef nonnull align 8 dereferenceable(128) %0, i1 noundef zeroext %1) #0 comdat align 2 {
  %3 = alloca ptr, align 8
  %4 = alloca i8, align 1
  store ptr %0, ptr %3, align 8
  %5 = zext i1 %1 to i8
  store i8 %5, ptr %4, align 1
  %6 = load ptr, ptr %3, align 8
  %7 = load i8, ptr %4, align 1
  %8 = trunc i8 %7 to i1
  %9 = zext i1 %8 to i8
  %10 = getelementptr inbounds nuw %"class.OpenSubdiv::v3_6_0::Bfr::internal::SurfaceData", ptr %6, i32 0, i32 2
  %11 = load i8, ptr %10, align 4
  %12 = and i8 %9, 1
  %13 = shl i8 %12, 3
  %14 = and i8 %11, -9
  %15 = or i8 %14, %13
  store i8 %15, ptr %10, align 4
  ret void
}

; Function Attrs: mustprogress nounwind uwtable
define linkonce_odr void @_ZN10OpenSubdiv6v3_6_03Bfr8internal11SurfaceData10setRegularEb(ptr noundef nonnull align 8 dereferenceable(128) %0, i1 noundef zeroext %1) #0 comdat align 2 {
  %3 = alloca ptr, align 8
  %4 = alloca i8, align 1
  store ptr %0, ptr %3, align 8
  %5 = zext i1 %1 to i8
  store i8 %5, ptr %4, align 1
  %6 = load ptr, ptr %3, align 8
  %7 = load i8, ptr %4, align 1
  %8 = trunc i8 %7 to i1
  %9 = zext i1 %8 to i8
  %10 = getelementptr inbounds nuw %"class.OpenSubdiv::v3_6_0::Bfr::internal::SurfaceData", ptr %6, i32 0, i32 2
  %11 = load i8, ptr %10, align 4
  %12 = and i8 %9, 1
  %13 = shl i8 %12, 2
  %14 = and i8 %11, -5
  %15 = or i8 %14, %13
  store i8 %15, ptr %10, align 4
  ret void
}

; Function Attrs: mustprogress nounwind uwtable
define linkonce_odr void @_ZN10OpenSubdiv6v3_6_03Bfr8internal11SurfaceData8setParamENS1_16ParameterizationE(ptr noundef nonnull align 8 dereferenceable(128) %0, i32 %1) #0 comdat align 2 {
  %3 = alloca %"class.OpenSubdiv::v3_6_0::Bfr::Parameterization", align 2
  %4 = alloca ptr, align 8
  store i32 %1, ptr %3, align 2
  store ptr %0, ptr %4, align 8
  %5 = load ptr, ptr %4, align 8
  %6 = getelementptr inbounds nuw %"class.OpenSubdiv::v3_6_0::Bfr::internal::SurfaceData", ptr %5, i32 0, i32 1
  call void @llvm.memcpy.p0.p0.i64(ptr align 8 %6, ptr align 2 %3, i64 4, i1 false)
  ret void
}

; Function Attrs: mustprogress uwtable
define void @_ZNK10OpenSubdiv6v3_6_03Bfr14SurfaceFactory20assignRegularSurfaceEPNS1_8internal11SurfaceDataEPKi(ptr noundef nonnull align 8 dereferenceable(56) %0, ptr noundef %1, ptr noundef %2) #1 align 2 {
  %4 = alloca ptr, align 8
  %5 = alloca ptr, align 8
  %6 = alloca ptr, align 8
  %7 = alloca ptr, align 8
  %8 = alloca %"class.OpenSubdiv::v3_6_0::Bfr::Parameterization", align 2
  %9 = alloca i32, align 4
  %10 = alloca ptr, align 8
  %11 = alloca ptr, align 8
  %12 = alloca i32, align 4
  %13 = alloca i32, align 4
  store ptr %0, ptr %4, align 8
  store ptr %1, ptr %5, align 8
  store ptr %2, ptr %6, align 8
  %14 = load ptr, ptr %4, align 8
  %15 = load ptr, ptr %5, align 8
  store ptr %15, ptr %7, align 8
  %16 = load ptr, ptr %7, align 8
  %17 = getelementptr inbounds nuw %"class.OpenSubdiv::v3_6_0::Bfr::SurfaceFactory", ptr %14, i32 0, i32 1
  %18 = load i32, ptr %17, align 8
  %19 = getelementptr inbounds nuw %"class.OpenSubdiv::v3_6_0::Bfr::SurfaceFactory", ptr %14, i32 0, i32 5
  %20 = load i32, ptr %19, align 4
  call void @_ZN10OpenSubdiv6v3_6_03Bfr16ParameterizationC1ENS0_3Sdc10SchemeTypeEi(ptr noundef nonnull align 2 dereferenceable(4) %8, i32 noundef %18, i32 noundef %20)
  %21 = load i32, ptr %8, align 2
  call void @_ZN10OpenSubdiv6v3_6_03Bfr8internal11SurfaceData8setParamENS1_16ParameterizationE(ptr noundef nonnull align 8 dereferenceable(128) %16, i32 %21)
  %22 = load ptr, ptr %7, align 8
  call void @_ZN10OpenSubdiv6v3_6_03Bfr8internal11SurfaceData10setRegularEb(ptr noundef nonnull align 8 dereferenceable(128) %22, i1 noundef zeroext true)
  %23 = load ptr, ptr %7, align 8
  call void @_ZN10OpenSubdiv6v3_6_03Bfr8internal11SurfaceData9setLinearEb(ptr noundef nonnull align 8 dereferenceable(128) %23, i1 noundef zeroext false)
  %24 = load ptr, ptr %7, align 8
  %25 = getelementptr inbounds nuw %"class.OpenSubdiv::v3_6_0::Bfr::SurfaceFactory", ptr %14, i32 0, i32 5
  %26 = load i32, ptr %25, align 4
  %27 = call noundef i32 @_ZN10OpenSubdiv6v3_6_03Bfr19RegularPatchBuilder12GetPatchTypeEi(i32 noundef %26)
  call void @_ZN10OpenSubdiv6v3_6_03Bfr8internal11SurfaceData15setRegPatchTypeEi(ptr noundef nonnull align 8 dereferenceable(128) %24, i32 noundef %27)
  %28 = load ptr, ptr %7, align 8
  %29 = getelementptr inbounds nuw %"class.OpenSubdiv::v3_6_0::Bfr::SurfaceFactory", ptr %14, i32 0, i32 5
  %30 = load i32, ptr %29, align 4
  %31 = load ptr, ptr %6, align 8
  %32 = call noundef i32 @_ZN10OpenSubdiv6v3_6_03Bfr19RegularPatchBuilder15GetBoundaryMaskEiPKi(i32 noundef %30, ptr noundef %31)
  call void @_ZN10OpenSubdiv6v3_6_03Bfr8internal11SurfaceData15setRegPatchMaskEi(ptr noundef nonnull align 8 dereferenceable(128) %28, i32 noundef %32)
  %33 = getelementptr inbounds nuw %"class.OpenSubdiv::v3_6_0::Bfr::SurfaceFactory", ptr %14, i32 0, i32 5
  %34 = load i32, ptr %33, align 4
  %35 = call noundef i32 @_ZN10OpenSubdiv6v3_6_03Bfr19RegularPatchBuilder12GetPatchSizeEi(i32 noundef %34)
  store i32 %35, ptr %9, align 4
  %36 = load ptr, ptr %6, align 8
  store ptr %36, ptr %10, align 8
  %37 = load ptr, ptr %7, align 8
  %38 = load i32, ptr %9, align 4
  %39 = call noundef ptr @_ZN10OpenSubdiv6v3_6_03Bfr8internal11SurfaceData9resizeCVsEi(ptr noundef nonnull align 8 dereferenceable(128) %37, i32 noundef %38)
  store ptr %39, ptr %11, align 8
  %40 = load ptr, ptr %7, align 8
  %41 = call noundef zeroext i8 @_ZNK10OpenSubdiv6v3_6_03Bfr8internal11SurfaceData15getRegPatchMaskEv(ptr noundef nonnull align 8 dereferenceable(128) %40)
  %42 = zext i8 %41 to i32
  %43 = icmp eq i32 %42, 0
  br i1 %43, label %44, label %50

44:                                               ; preds = %3
  %45 = load ptr, ptr %11, align 8
  %46 = load ptr, ptr %10, align 8
  %47 = load i32, ptr %9, align 4
  %48 = sext i32 %47 to i64
  %49 = mul i64 %48, 4
  call void @llvm.memcpy.p0.p0.i64(ptr align 4 %45, ptr align 4 %46, i64 %49, i1 false)
  br label %83

50:                                               ; preds = %3
  %51 = load ptr, ptr %10, align 8
  %52 = getelementptr inbounds i32, ptr %51, i64 5
  %53 = load i32, ptr %52, align 4
  store i32 %53, ptr %12, align 4
  store i32 0, ptr %13, align 4
  br label %54

54:                                               ; preds = %79, %50
  %55 = load i32, ptr %13, align 4
  %56 = load i32, ptr %9, align 4
  %57 = icmp slt i32 %55, %56
  br i1 %57, label %58, label %82

58:                                               ; preds = %54
  %59 = load ptr, ptr %10, align 8
  %60 = load i32, ptr %13, align 4
  %61 = sext i32 %60 to i64
  %62 = getelementptr inbounds i32, ptr %59, i64 %61
  %63 = load i32, ptr %62, align 4
  %64 = icmp slt i32 %63, 0
  br i1 %64, label %65, label %67

65:                                               ; preds = %58
  %66 = load i32, ptr %12, align 4
  br label %73

67:                                               ; preds = %58
  %68 = load ptr, ptr %10, align 8
  %69 = load i32, ptr %13, align 4
  %70 = sext i32 %69 to i64
  %71 = getelementptr inbounds i32, ptr %68, i64 %70
  %72 = load i32, ptr %71, align 4
  br label %73

73:                                               ; preds = %67, %65
  %74 = phi i32 [ %66, %65 ], [ %72, %67 ]
  %75 = load ptr, ptr %11, align 8
  %76 = load i32, ptr %13, align 4
  %77 = sext i32 %76 to i64
  %78 = getelementptr inbounds i32, ptr %75, i64 %77
  store i32 %74, ptr %78, align 4
  br label %79

79:                                               ; preds = %73
  %80 = load i32, ptr %13, align 4
  %81 = add nsw i32 %80, 1
  store i32 %81, ptr %13, align 4
  br label %54, !llvm.loop !7

82:                                               ; preds = %54
  br label %83

83:                                               ; preds = %82, %44
  %84 = load ptr, ptr %7, align 8
  call void @_ZN10OpenSubdiv6v3_6_03Bfr8internal11SurfaceData8setValidEb(ptr noundef nonnull align 8 dereferenceable(128) %84, i1 noundef zeroext true)
  ret void
}