; Function Attrs: mustprogress uwtable
define void @_ZNK10OpenSubdiv6v3_6_03Bfr14SurfaceFactory20assignRegularSurfaceEPNS1_8internal11SurfaceDataEPKi(ptr noundef nonnull readonly align 8 captures(none) dereferenceable(56) %0, ptr noundef initializes((104, 108), (109, 111)) %1, ptr noundef %2) local_unnamed_addr #2 align 2 {
  %4 = alloca %"class.OpenSubdiv::v3_6_0::Bfr::Parameterization", align 4
  %5 = getelementptr inbounds nuw i8, ptr %0, i64 8
  %6 = load i32, ptr %5, align 8
  %7 = getelementptr inbounds nuw i8, ptr %0, i64 44
  %8 = load i32, ptr %7, align 4
  call void @_ZN10OpenSubdiv6v3_6_03Bfr16ParameterizationC1ENS0_3Sdc10SchemeTypeEi(ptr noundef nonnull align 2 dereferenceable(4) %4, i32 noundef %6, i32 noundef %8)
  %9 = load i32, ptr %4, align 4
  %10 = getelementptr inbounds nuw i8, ptr %1, i64 104
  store i32 %9, ptr %10, align 8
  %11 = getelementptr inbounds nuw i8, ptr %1, i64 108
  %12 = load i8, ptr %11, align 4
  %13 = and i8 %12, -13
  %14 = or disjoint i8 %13, 4
  store i8 %14, ptr %11, align 4
  %15 = load i32, ptr %7, align 4
  %16 = icmp eq i32 %15, 4
  %17 = select i1 %16, i8 6, i8 5
  %18 = getelementptr inbounds nuw i8, ptr %1, i64 109
  store i8 %17, ptr %18, align 1
  %19 = load i32, ptr %7, align 4
  %20 = call noundef i32 @_ZN10OpenSubdiv6v3_6_03Bfr19RegularPatchBuilder15GetBoundaryMaskEiPKi(i32 noundef %19, ptr noundef %2)
  %21 = trunc i32 %20 to i8
  %22 = getelementptr inbounds nuw i8, ptr %1, i64 110
  store i8 %21, ptr %22, align 2
  %23 = load i32, ptr %7, align 4
  %24 = icmp eq i32 %23, 4
  %25 = select i1 %24, i32 16, i32 12
  %26 = getelementptr inbounds nuw i8, ptr %1, i64 12
  %27 = load i32, ptr %26, align 4
  %28 = icmp ugt i32 %25, %27
  br i1 %28, label %29, label %._ZN10OpenSubdiv6v3_6_03Vtr8internal11StackBufferIiLj20ELb1EE7SetSizeEj.exit_crit_edge.i

._ZN10OpenSubdiv6v3_6_03Vtr8internal11StackBufferIiLj20ELb1EE7SetSizeEj.exit_crit_edge.i: ; preds = %3
  %.pre.i = load ptr, ptr %1, align 8
  br label %_ZN10OpenSubdiv6v3_6_03Bfr8internal11SurfaceData9resizeCVsEi.exit

29:                                               ; preds = %3
  %30 = getelementptr inbounds nuw i8, ptr %1, i64 96
  %31 = load ptr, ptr %30, align 8
  call void @_ZdlPv(ptr noundef %31) #16
  %32 = getelementptr inbounds nuw i8, ptr %1, i64 16
  store ptr %32, ptr %1, align 8
  store i32 20, ptr %26, align 4
  %33 = shl nuw nsw i32 %25, 2
  %34 = zext nneg i32 %33 to i64
  %35 = call noalias noundef nonnull ptr @_Znwm(i64 noundef %34) #17
  store ptr %35, ptr %30, align 8
  store ptr %35, ptr %1, align 8
  store i32 %25, ptr %26, align 4
  %.pre = load i8, ptr %22, align 2
  br label %_ZN10OpenSubdiv6v3_6_03Bfr8internal11SurfaceData9resizeCVsEi.exit

_ZN10OpenSubdiv6v3_6_03Bfr8internal11SurfaceData9resizeCVsEi.exit: ; preds = %._ZN10OpenSubdiv6v3_6_03Vtr8internal11StackBufferIiLj20ELb1EE7SetSizeEj.exit_crit_edge.i, %29
  %36 = phi i8 [ %21, %._ZN10OpenSubdiv6v3_6_03Vtr8internal11StackBufferIiLj20ELb1EE7SetSizeEj.exit_crit_edge.i ], [ %.pre, %29 ]
  %37 = phi ptr [ %.pre.i, %._ZN10OpenSubdiv6v3_6_03Vtr8internal11StackBufferIiLj20ELb1EE7SetSizeEj.exit_crit_edge.i ], [ %35, %29 ]
  %38 = getelementptr inbounds nuw i8, ptr %1, i64 8
  store i32 %25, ptr %38, align 8
  %39 = icmp eq i8 %36, 0
  br i1 %39, label %40, label %43

40:                                               ; preds = %_ZN10OpenSubdiv6v3_6_03Bfr8internal11SurfaceData9resizeCVsEi.exit
  %41 = shl nuw nsw i32 %25, 2
  %42 = zext nneg i32 %41 to i64
  call void @llvm.memcpy.p0.p0.i64(ptr noundef nonnull align 4 dereferenceable(1) %37, ptr noundef nonnull align 4 dereferenceable(1) %2, i64 %42, i1 false)
  br label %.loopexit

43:                                               ; preds = %_ZN10OpenSubdiv6v3_6_03Bfr8internal11SurfaceData9resizeCVsEi.exit
  %44 = getelementptr inbounds nuw i8, ptr %2, i64 20
  %45 = load i32, ptr %44, align 4
  %wide.trip.count = zext nneg i32 %25 to i64
  br label %46

46:                                               ; preds = %43, %46
  %indvars.iv = phi i64 [ 0, %43 ], [ %indvars.iv.next, %46 ]
  %47 = getelementptr inbounds nuw i32, ptr %2, i64 %indvars.iv
  %48 = load i32, ptr %47, align 4
  %49 = icmp slt i32 %48, 0
  %. = select i1 %49, i32 %45, i32 %48
  %50 = getelementptr inbounds nuw i32, ptr %37, i64 %indvars.iv
  store i32 %., ptr %50, align 4
  %indvars.iv.next = add nuw nsw i64 %indvars.iv, 1
  %exitcond.not = icmp eq i64 %indvars.iv.next, %wide.trip.count
  br i1 %exitcond.not, label %.loopexit, label %46, !llvm.loop !13

.loopexit:                                        ; preds = %46, %40
  %51 = load i8, ptr %11, align 4
  %52 = or i8 %51, 1
  store i8 %52, ptr %11, align 4
  ret void
}